target datalayout = "e-m:e-p270:32:32-p271:32:32-p272:64:64-i64:64-i128:128-f80:128-n8:16:32:64-S128"
target triple = "x86_64-pc-linux-gnu"

%struct.heif_error = type { i32, i32, ptr }
%"class.std::__cxx11::basic_string" = type { %"struct.std::__cxx11::basic_string<char>::_Alloc_hider", i64, %union.anon.15 }
%"struct.std::__cxx11::basic_string<char>::_Alloc_hider" = type { ptr }
%union.anon.15 = type { i64, [8 x i8] }
%"class.OpenImageIO::v3_1_0::Filesystem::IOProxy" = type { ptr, %"class.std::__cxx11::basic_string", i64, i32, %"class.std::__cxx11::basic_string" }
%"class.OpenImageIO::v3_1_0::(anonymous namespace)::MyHeifWriter" = type { %"class.heif::Context::Writer", ptr }
%"class.heif::Context::Writer" = type { ptr }

@__const._ZN11OpenImageIO6v3_1_012_GLOBAL__N_112MyHeifWriter5writeEPKvm.herr = private unnamed_addr constant %struct.heif_error { i32 0, i32 0, ptr @.str.5 }, align 8
@.str.14 = private unnamed_addr constant [12 x i8] c"write error\00", align 1

; Function Attrs: mustprogress nounwind uwtable
define linkonce_odr noundef i32 @_ZNK11OpenImageIO6v3_1_010Filesystem7IOProxy4modeEv(ptr noundef nonnull align 8 dereferenceable(88) %0) #7 comdat align 2 {
  %2 = alloca ptr, align 8
  store ptr %0, ptr %2, align 8, !tbaa !163
  %3 = load ptr, ptr %2, align 8
  %4 = getelementptr inbounds nuw %"class.OpenImageIO::v3_1_0::Filesystem::IOProxy", ptr %3, i32 0, i32 3
  %5 = load i32, ptr %4, align 8, !tbaa !165
  ret i32 %5
}

; Function Attrs: mustprogress uwtable
define internal { i64, ptr } @_ZN11OpenImageIO6v3_1_012_GLOBAL__N_112MyHeifWriter5writeEPKvm(ptr noundef nonnull align 8 dereferenceable(16) %0, ptr noundef %1, i64 noundef %2) unnamed_addr #6 align 2 {
  %4 = alloca %struct.heif_error, align 8
  %5 = alloca ptr, align 8
  %6 = alloca ptr, align 8
  %7 = alloca i64, align 8
  store ptr %0, ptr %5, align 8, !tbaa !170
  store ptr %1, ptr %6, align 8, !tbaa !112
  store i64 %2, ptr %7, align 8, !tbaa !109
  %8 = load ptr, ptr %5, align 8
  call void @llvm.memcpy.p0.p0.i64(ptr align 8 %4, ptr align 8 @__const._ZN11OpenImageIO6v3_1_012_GLOBAL__N_112MyHeifWriter5writeEPKvm.herr, i64 16, i1 false)
  %9 = getelementptr inbounds nuw %"class.OpenImageIO::v3_1_0::(anonymous namespace)::MyHeifWriter", ptr %8, i32 0, i32 1
  %10 = load ptr, ptr %9, align 8, !tbaa !172
  %11 = icmp ne ptr %10, null
  br i1 %11, label %12, label %29

12:                                               ; preds = %3
  %13 = getelementptr inbounds nuw %"class.OpenImageIO::v3_1_0::(anonymous namespace)::MyHeifWriter", ptr %8, i32 0, i32 1
  %14 = load ptr, ptr %13, align 8, !tbaa !172
  %15 = call noundef i32 @_ZNK11OpenImageIO6v3_1_010Filesystem7IOProxy4modeEv(ptr noundef nonnull align 8 dereferenceable(88) %14)
  %16 = icmp eq i32 %15, 119
  br i1 %16, label %17, label %29

17:                                               ; preds = %12
  %18 = getelementptr inbounds nuw %"class.OpenImageIO::v3_1_0::(anonymous namespace)::MyHeifWriter", ptr %8, i32 0, i32 1
  %19 = load ptr, ptr %18, align 8, !tbaa !172
  %20 = load ptr, ptr %6, align 8, !tbaa !112
  %21 = load i64, ptr %7, align 8, !tbaa !109
  %22 = load ptr, ptr %19, align 8, !tbaa !10
  %23 = getelementptr inbounds ptr, ptr %22, i64 8
  %24 = load ptr, ptr %23, align 8
  %25 = call noundef i64 %24(ptr noundef nonnull align 8 dereferenceable(88) %19, ptr noundef %20, i64 noundef %21)
  %26 = load i64, ptr %7, align 8, !tbaa !109
  %27 = icmp eq i64 %25, %26
  br i1 %27, label %28, label %29

28:                                               ; preds = %17
  br label %32

29:                                               ; preds = %17, %12, %3
  %30 = getelementptr inbounds nuw %struct.heif_error, ptr %4, i32 0, i32 0
  store i32 9, ptr %30, align 8, !tbaa !272
  %31 = getelementptr inbounds nuw %struct.heif_error, ptr %4, i32 0, i32 2
  store ptr @.str.14, ptr %31, align 8, !tbaa !280
  br label %32

32:                                               ; preds = %29, %28
  %33 = load { i64, ptr }, ptr %4, align 8
  ret { i64, ptr } %33
}