; Function Attrs: mustprogress uwtable
define internal { i64, ptr } @_ZN11OpenImageIO6v3_1_012_GLOBAL__N_112MyHeifWriter5writeEPKvm(ptr noundef nonnull readonly align 8 captures(none) dereferenceable(16) %0, ptr noundef %1, i64 noundef %2) unnamed_addr #5 align 2 {
  %4 = getelementptr inbounds nuw i8, ptr %0, i64 8
  %5 = load ptr, ptr %4, align 8, !tbaa !122
  %.not = icmp eq ptr %5, null
  br i1 %.not, label %16, label %6

6:                                                ; preds = %3
  %7 = getelementptr inbounds nuw i8, ptr %5, i64 48
  %8 = load i32, ptr %7, align 8, !tbaa !119
  %9 = icmp eq i32 %8, 119
  br i1 %9, label %10, label %16

10:                                               ; preds = %6
  %11 = load ptr, ptr %5, align 8, !tbaa !3
  %12 = getelementptr inbounds nuw i8, ptr %11, i64 64
  %13 = load ptr, ptr %12, align 8
  %14 = tail call noundef i64 %13(ptr noundef nonnull align 8 dereferenceable(88) %5, ptr noundef %1, i64 noundef %2)
  %15 = icmp eq i64 %14, %2
  br i1 %15, label %17, label %16

16:                                               ; preds = %10, %6, %3
  br label %17

17:                                               ; preds = %10, %16
  %.sroa.3.0 = phi ptr [ @.str.5, %10 ], [ @.str.14, %16 ]
  %.sroa.0.sroa.0.0 = phi i64 [ 0, %10 ], [ 9, %16 ]
  %.fca.0.insert = insertvalue { i64, ptr } poison, i64 %.sroa.0.sroa.0.0, 0
  %.fca.1.insert = insertvalue { i64, ptr } %.fca.0.insert, ptr %.sroa.3.0, 1
  ret { i64, ptr } %.fca.1.insert
}